ccollections
OrderedDict
p1
((lp2
(lp3
S'test.'
p4
aI2
aa(lp5
S'a'
aI3
aa(lp6
S'is'
p7
aI4
aa(lp8
S'This'
p9
aI5
aatRp10
.ccollections
OrderedDict
p1
((lp2
(lp3
S'This'
p4
aI1
aa(lp5
S'is'
p6
aI1
aa(lp7
S'a'
aI1
aa(lp8
S'test.'
p9
aI1
aatRp10
.